; Function Attrs: nounwind uwtable
define internal fastcc noundef ptr @_readAlterTableMoveAllStmt() unnamed_addr #0 {
  %1 = alloca i32, align 4
  %2 = tail call noundef ptr @palloc0(i64 noundef 48) #10
  store i32 164, ptr %2, align 4
  call void @llvm.lifetime.start.p0(i64 4, ptr nonnull %1) #10
  %3 = call ptr @pg_strtok(ptr noundef nonnull %1) #10
  %4 = call ptr @pg_strtok(ptr noundef nonnull %1) #10
  %5 = load i32, ptr %1, align 4
  switch i32 %5, label %15 [
    i32 0, label %nullable_string.exit
    i32 2, label %6
  ]

6:                                                ; preds = %0
  %7 = load i8, ptr %4, align 1
  %8 = icmp eq i8 %7, 34
  br i1 %8, label %9, label %15

9:                                                ; preds = %6
  %10 = getelementptr inbounds nuw i8, ptr %4, i64 1
  %11 = load i8, ptr %10, align 1
  %12 = icmp eq i8 %11, 34
  br i1 %12, label %13, label %15

13:                                               ; preds = %9
  %14 = call ptr @pstrdup(ptr noundef nonnull @.str.326) #10
  br label %nullable_string.exit

15:                                               ; preds = %9, %6, %0
  %16 = call ptr @debackslash(ptr noundef %4, i32 noundef %5) #10
  br label %nullable_string.exit

nullable_string.exit:                             ; preds = %0, %13, %15
  %.0.i = phi ptr [ %14, %13 ], [ %16, %15 ], [ null, %0 ]
  %17 = getelementptr inbounds nuw i8, ptr %2, i64 8
  store ptr %.0.i, ptr %17, align 8
  %18 = call ptr @pg_strtok(ptr noundef nonnull %1) #10
  %19 = call ptr @pg_strtok(ptr noundef nonnull %1) #10
  %20 = call i64 @strtol(ptr noundef nonnull captures(none) %19, ptr noundef null, i32 noundef 10) #10
  %21 = trunc i64 %20 to i32
  %22 = getelementptr inbounds nuw i8, ptr %2, i64 16
  store i32 %21, ptr %22, align 8
  %23 = call ptr @pg_strtok(ptr noundef nonnull %1) #10
  %24 = call ptr @nodeRead(ptr noundef null, i32 noundef 0) #10
  %25 = getelementptr inbounds nuw i8, ptr %2, i64 24
  store ptr %24, ptr %25, align 8
  %26 = call ptr @pg_strtok(ptr noundef nonnull %1) #10
  %27 = call ptr @pg_strtok(ptr noundef nonnull %1) #10
  %28 = load i32, ptr %1, align 4
  switch i32 %28, label %38 [
    i32 0, label %nullable_string.exit11
    i32 2, label %29
  ]

29:                                               ; preds = %nullable_string.exit
  %30 = load i8, ptr %27, align 1
  %31 = icmp eq i8 %30, 34
  br i1 %31, label %32, label %38

32:                                               ; preds = %29
  %33 = getelementptr inbounds nuw i8, ptr %27, i64 1
  %34 = load i8, ptr %33, align 1
  %35 = icmp eq i8 %34, 34
  br i1 %35, label %36, label %38

36:                                               ; preds = %32
  %37 = call ptr @pstrdup(ptr noundef nonnull @.str.326) #10
  br label %nullable_string.exit11

38:                                               ; preds = %32, %29, %nullable_string.exit
  %39 = call ptr @debackslash(ptr noundef %27, i32 noundef %28) #10
  br label %nullable_string.exit11

nullable_string.exit11:                           ; preds = %nullable_string.exit, %36, %38
  %.0.i10 = phi ptr [ %37, %36 ], [ %39, %38 ], [ null, %nullable_string.exit ]
  %40 = getelementptr inbounds nuw i8, ptr %2, i64 32
  store ptr %.0.i10, ptr %40, align 8
  %41 = call ptr @pg_strtok(ptr noundef nonnull %1) #10
  %42 = call ptr @pg_strtok(ptr noundef nonnull %1) #10
  %43 = load i8, ptr %42, align 1
  %44 = icmp eq i8 %43, 116
  %45 = getelementptr inbounds nuw i8, ptr %2, i64 40
  %46 = zext i1 %44 to i8
  store i8 %46, ptr %45, align 8
  call void @llvm.lifetime.end.p0(i64 4, ptr nonnull %1) #10
  ret ptr %2
}